; Function Attrs: nounwind uwtable
define void @glfwSwapBuffers(ptr noundef %0) local_unnamed_addr #0 {
  %2 = load i32, ptr @_glfw, align 8, !tbaa !78
  %.not = icmp eq i32 %2, 0
  br i1 %.not, label %3, label %4

3:                                                ; preds = %1
  tail call void (i32, ptr, ...) @_glfwInputError(i32 noundef 65537, ptr noundef null) #7
  br label %12

4:                                                ; preds = %1
  %5 = getelementptr inbounds nuw i8, ptr %0, i64 528
  %6 = load i32, ptr %5, align 8, !tbaa !13
  %7 = icmp eq i32 %6, 0
  br i1 %7, label %8, label %9

8:                                                ; preds = %4
  tail call void (i32, ptr, ...) @_glfwInputError(i32 noundef 65546, ptr noundef nonnull @.str.31) #7
  br label %12

9:                                                ; preds = %4
  %10 = getelementptr inbounds nuw i8, ptr %0, i64 608
  %11 = load ptr, ptr %10, align 8, !tbaa !169
  tail call void %11(ptr noundef nonnull %0) #7
  br label %12

12:                                               ; preds = %9, %8, %3
  ret void
}